; Function Attrs: nounwind uwtable
define internal void @redisProtocolToLuaType_Bool(ptr noundef %0, i32 noundef %1, ptr readnone captures(none) %2, i64 %3) #0 {
  %.not = icmp eq ptr %0, null
  br i1 %.not, label %9, label %5

5:                                                ; preds = %4
  %6 = tail call i32 @lua_checkstack(ptr noundef nonnull %0, i32 noundef 1) #11
  %.not4 = icmp eq i32 %6, 0
  br i1 %.not4, label %7, label %8

7:                                                ; preds = %5
  tail call void (ptr, i32, ptr, ...) @_serverPanic(ptr noundef nonnull @.str.1, i32 noundef 481, ptr noundef nonnull @.str.105) #11
  tail call void @abort() #12
  unreachable

8:                                                ; preds = %5
  tail call void @lua_pushboolean(ptr noundef nonnull %0, i32 noundef %1) #11
  br label %9

9:                                                ; preds = %4, %8
  ret void
}